target datalayout = "e-m:e-p270:32:32-p271:32:32-p272:64:64-i64:64-i128:128-f80:128-n8:16:32:64-S128"
target triple = "x86_64-pc-linux-gnu"

%struct.ColorEntry = type { ptr, [3 x i8] }

; Function Attrs: nounwind uwtable
define ptr @av_get_known_color_name(i32 noundef %0, ptr noundef %1) #0 {
  %3 = alloca ptr, align 8
  %4 = alloca i32, align 4
  %5 = alloca ptr, align 8
  %6 = alloca ptr, align 8
  %7 = alloca i32, align 4
  store i32 %0, ptr %4, align 4, !tbaa !11
  store ptr %1, ptr %5, align 8, !tbaa !39
  call void @llvm.lifetime.start.p0(i64 8, ptr %6) #10
  %8 = load i32, ptr %4, align 4, !tbaa !11
  %9 = zext i32 %8 to i64
  %10 = icmp uge i64 %9, 140
  br i1 %10, label %11, label %12

11:                                               ; preds = %2
  store ptr null, ptr %3, align 8
  store i32 1, ptr %7, align 4
  br label %27

12:                                               ; preds = %2
  %13 = load i32, ptr %4, align 4, !tbaa !11
  %14 = sext i32 %13 to i64
  %15 = getelementptr inbounds [140 x %struct.ColorEntry], ptr @color_table, i64 0, i64 %14
  store ptr %15, ptr %6, align 8, !tbaa !32
  %16 = load ptr, ptr %5, align 8, !tbaa !39
  %17 = icmp ne ptr %16, null
  br i1 %17, label %18, label %23

18:                                               ; preds = %12
  %19 = load ptr, ptr %6, align 8, !tbaa !32
  %20 = getelementptr inbounds nuw %struct.ColorEntry, ptr %19, i32 0, i32 1
  %21 = getelementptr inbounds [3 x i8], ptr %20, i64 0, i64 0
  %22 = load ptr, ptr %5, align 8, !tbaa !39
  store ptr %21, ptr %22, align 8, !tbaa !9
  br label %23

23:                                               ; preds = %18, %12
  %24 = load ptr, ptr %6, align 8, !tbaa !32
  %25 = getelementptr inbounds nuw %struct.ColorEntry, ptr %24, i32 0, i32 0
  %26 = load ptr, ptr %25, align 8, !tbaa !37
  store ptr %26, ptr %3, align 8
  store i32 1, ptr %7, align 4
  br label %27

27:                                               ; preds = %23, %11
  call void @llvm.lifetime.end.p0(i64 8, ptr %6) #10
  %28 = load ptr, ptr %3, align 8
  ret ptr %28
}