; Function Attrs: mustprogress nofree norecurse nosync nounwind willreturn memory(argmem: write) uwtable
define ptr @av_get_known_color_name(i32 noundef %0, ptr noundef writeonly captures(address_is_null) %1) local_unnamed_addr #9 {
  %3 = icmp ugt i32 %0, 139
  br i1 %3, label %11, label %4

4:                                                ; preds = %2
  %5 = zext nneg i32 %0 to i64
  %6 = getelementptr inbounds nuw [140 x %struct.ColorEntry], ptr @color_table, i64 0, i64 %5
  %.not = icmp eq ptr %1, null
  br i1 %.not, label %9, label %7

7:                                                ; preds = %4
  %8 = getelementptr inbounds nuw i8, ptr %6, i64 8
  store ptr %8, ptr %1, align 8, !tbaa !20
  br label %9

9:                                                ; preds = %7, %4
  %10 = load ptr, ptr %6, align 16, !tbaa !26
  br label %11

11:                                               ; preds = %2, %9
  %.0 = phi ptr [ %10, %9 ], [ null, %2 ]
  ret ptr %.0
}